target datalayout = "e-m:e-p270:32:32-p271:32:32-p272:64:64-i64:64-i128:128-f80:128-n8:16:32:64-S128"
target triple = "x86_64-pc-linux-gnu"

%struct.rb_code_location_struct = type { %struct.rb_code_position_struct, %struct.rb_code_position_struct }
%struct.rb_code_position_struct = type { i32, i32 }
%struct.lex_context = type { i16, [2 x i8] }
%struct.parser_params = type { ptr, ptr, %struct.anon.12, i64, i64, i32, i32, i32, i32, i32, ptr, ptr, ptr, ptr, i32, i32, ptr, i64, ptr, ptr, ptr, ptr, i64, i64, %struct.anon.13, ptr, i32, ptr, i32, i64, %struct.lex_context, ptr, ptr, ptr, i16, i64, i64, i64, i64, i64, i64 }
%struct.anon.12 = type { ptr, ptr, ptr, %struct.parser_string_buffer, ptr, ptr, ptr, ptr, ptr, ptr, i32, i32, i32, i32 }
%struct.parser_string_buffer = type { ptr, ptr }
%struct.anon.13 = type { ptr, i32, i32, i32, i32 }
%struct.RNode = type { i64, %struct.rb_code_location_struct, i32 }
%struct.RNode_LIST = type { %struct.RNode, ptr, %union.anon.15, ptr }
%union.anon.15 = type { i64 }
%struct.RNode_BLOCK_PASS = type { %struct.RNode, ptr, ptr, i8, %struct.rb_code_location_struct }
%struct.RNode_ARGSPUSH = type { %struct.RNode, ptr, ptr }
%struct.RNode_ARGSCAT = type { %struct.RNode, ptr, ptr }

; Function Attrs: inlinehint nounwind sspstrong uwtable
define internal void @nd_set_line(ptr noundef %0, i64 noundef %1) #6 {
  %3 = alloca ptr, align 8
  %4 = alloca i64, align 8
  store ptr %0, ptr %3, align 8, !tbaa !33
  store i64 %1, ptr %4, align 8, !tbaa !16
  %5 = load ptr, ptr %3, align 8, !tbaa !33
  %6 = getelementptr inbounds nuw %struct.RNode, ptr %5, i32 0, i32 0
  %7 = load i64, ptr %6, align 8, !tbaa !175
  %8 = and i64 %7, 32767
  store i64 %8, ptr %6, align 8, !tbaa !175
  %9 = load i64, ptr %4, align 8, !tbaa !16
  %10 = and i64 %9, 562949953421311
  %11 = shl i64 %10, 15
  %12 = load ptr, ptr %3, align 8, !tbaa !33
  %13 = getelementptr inbounds nuw %struct.RNode, ptr %12, i32 0, i32 0
  %14 = load i64, ptr %13, align 8, !tbaa !175
  %15 = or i64 %14, %11
  store i64 %15, ptr %13, align 8, !tbaa !175
  ret void
}

; Function Attrs: nounwind sspstrong uwtable
define internal i32 @parser_get_node_id(ptr noundef %0) #0 {
  %2 = alloca ptr, align 8
  %3 = alloca i32, align 4
  store ptr %0, ptr %2, align 8, !tbaa !6
  call void @llvm.lifetime.start.p0(i64 4, ptr %3) #25
  %4 = load ptr, ptr %2, align 8, !tbaa !6
  %5 = getelementptr inbounds nuw %struct.parser_params, ptr %4, i32 0, i32 26
  %6 = load i32, ptr %5, align 8, !tbaa !670
  store i32 %6, ptr %3, align 4, !tbaa !14
  %7 = load ptr, ptr %2, align 8, !tbaa !6
  %8 = getelementptr inbounds nuw %struct.parser_params, ptr %7, i32 0, i32 26
  %9 = load i32, ptr %8, align 8, !tbaa !670
  %10 = add nsw i32 %9, 1
  store i32 %10, ptr %8, align 8, !tbaa !670
  %11 = load i32, ptr %3, align 4, !tbaa !14
  call void @llvm.lifetime.end.p0(i64 4, ptr %3) #25
  ret i32 %11
}

; Function Attrs: nounwind sspstrong uwtable
define internal ptr @nd_set_loc(ptr noundef %0, ptr noundef %1) #0 {
  %3 = alloca ptr, align 8
  %4 = alloca ptr, align 8
  store ptr %0, ptr %3, align 8, !tbaa !33
  store ptr %1, ptr %4, align 8, !tbaa !22
  %5 = load ptr, ptr %3, align 8, !tbaa !33
  %6 = getelementptr inbounds nuw %struct.RNode, ptr %5, i32 0, i32 1
  %7 = load ptr, ptr %4, align 8, !tbaa !22
  call void @llvm.memcpy.p0.p0.i64(ptr align 8 %6, ptr align 4 %7, i64 16, i1 false), !tbaa.struct !13
  %8 = load ptr, ptr %3, align 8, !tbaa !33
  %9 = load ptr, ptr %4, align 8, !tbaa !22
  %10 = getelementptr inbounds nuw %struct.rb_code_location_struct, ptr %9, i32 0, i32 0
  %11 = getelementptr inbounds nuw %struct.rb_code_position_struct, ptr %10, i32 0, i32 0
  %12 = load i32, ptr %11, align 4, !tbaa !293
  %13 = sext i32 %12 to i64
  call void @nd_set_line(ptr noundef %8, i64 noundef %13)
  %14 = load ptr, ptr %3, align 8, !tbaa !33
  ret ptr %14
}

; Function Attrs: nounwind sspstrong uwtable
define internal ptr @node_new_internal(ptr noundef %0, i32 noundef %1, i64 noundef %2, i64 noundef %3) #0 {
  %5 = alloca ptr, align 8
  %6 = alloca i32, align 4
  %7 = alloca i64, align 8
  %8 = alloca i64, align 8
  %9 = alloca ptr, align 8
  store ptr %0, ptr %5, align 8, !tbaa !6
  store i32 %1, ptr %6, align 4, !tbaa !14
  store i64 %2, ptr %7, align 8, !tbaa !16
  store i64 %3, ptr %8, align 8, !tbaa !16
  call void @llvm.lifetime.start.p0(i64 8, ptr %9) #25
  %10 = load ptr, ptr %5, align 8, !tbaa !6
  %11 = getelementptr inbounds nuw %struct.parser_params, ptr %10, i32 0, i32 25
  %12 = load ptr, ptr %11, align 8, !tbaa !172
  %13 = load i32, ptr %6, align 4, !tbaa !14
  %14 = load i64, ptr %7, align 8, !tbaa !16
  %15 = load i64, ptr %8, align 8, !tbaa !16
  %16 = call ptr @rb_ast_newnode(ptr noundef %12, i32 noundef %13, i64 noundef %14, i64 noundef %15)
  store ptr %16, ptr %9, align 8, !tbaa !33
  %17 = load ptr, ptr %9, align 8, !tbaa !33
  %18 = load i32, ptr %6, align 4, !tbaa !14
  call void @rb_node_init(ptr noundef %17, i32 noundef %18)
  %19 = load ptr, ptr %9, align 8, !tbaa !33
  call void @llvm.lifetime.end.p0(i64 8, ptr %9) #25
  ret ptr %19
}

; Function Attrs: nounwind sspstrong uwtable
define internal ptr @node_newnode(ptr noundef %0, i32 noundef %1, i64 noundef %2, i64 noundef %3, ptr noundef %4) #0 {
  %6 = alloca ptr, align 8
  %7 = alloca i32, align 4
  %8 = alloca i64, align 8
  %9 = alloca i64, align 8
  %10 = alloca ptr, align 8
  %11 = alloca ptr, align 8
  store ptr %0, ptr %6, align 8, !tbaa !6
  store i32 %1, ptr %7, align 4, !tbaa !14
  store i64 %2, ptr %8, align 8, !tbaa !16
  store i64 %3, ptr %9, align 8, !tbaa !16
  store ptr %4, ptr %10, align 8, !tbaa !22
  call void @llvm.lifetime.start.p0(i64 8, ptr %11) #25
  %12 = load ptr, ptr %6, align 8, !tbaa !6
  %13 = load i32, ptr %7, align 4, !tbaa !14
  %14 = load i64, ptr %8, align 8, !tbaa !16
  %15 = load i64, ptr %9, align 8, !tbaa !16
  %16 = call ptr @node_new_internal(ptr noundef %12, i32 noundef %13, i64 noundef %14, i64 noundef %15)
  store ptr %16, ptr %11, align 8, !tbaa !33
  %17 = load ptr, ptr %11, align 8, !tbaa !33
  %18 = load ptr, ptr %10, align 8, !tbaa !22
  %19 = call ptr @nd_set_loc(ptr noundef %17, ptr noundef %18)
  %20 = load ptr, ptr %6, align 8, !tbaa !6
  %21 = call i32 @parser_get_node_id(ptr noundef %20)
  %22 = load ptr, ptr %11, align 8, !tbaa !33
  %23 = getelementptr inbounds nuw %struct.RNode, ptr %22, i32 0, i32 2
  store i32 %21, ptr %23, align 8, !tbaa !798
  %24 = load ptr, ptr %11, align 8, !tbaa !33
  call void @llvm.lifetime.end.p0(i64 8, ptr %11) #25
  ret ptr %24
}

; Function Attrs: nounwind sspstrong uwtable
define internal ptr @rb_node_argspush_new(ptr noundef %0, ptr noundef %1, ptr noundef %2, ptr noundef %3) #0 {
  %5 = alloca ptr, align 8
  %6 = alloca ptr, align 8
  %7 = alloca ptr, align 8
  %8 = alloca ptr, align 8
  %9 = alloca ptr, align 8
  store ptr %0, ptr %5, align 8, !tbaa !6
  store ptr %1, ptr %6, align 8, !tbaa !33
  store ptr %2, ptr %7, align 8, !tbaa !33
  store ptr %3, ptr %8, align 8, !tbaa !22
  call void @llvm.lifetime.start.p0(i64 8, ptr %9) #25
  %10 = load ptr, ptr %5, align 8, !tbaa !6
  %11 = load ptr, ptr %8, align 8, !tbaa !22
  %12 = call ptr @node_newnode(ptr noundef %10, i32 noundef 77, i64 noundef 48, i64 noundef 8, ptr noundef %11)
  store ptr %12, ptr %9, align 8, !tbaa !905
  %13 = load ptr, ptr %6, align 8, !tbaa !33
  %14 = load ptr, ptr %9, align 8, !tbaa !905
  %15 = getelementptr inbounds nuw %struct.RNode_ARGSPUSH, ptr %14, i32 0, i32 1
  store ptr %13, ptr %15, align 8, !tbaa !907
  %16 = load ptr, ptr %7, align 8, !tbaa !33
  %17 = load ptr, ptr %9, align 8, !tbaa !905
  %18 = getelementptr inbounds nuw %struct.RNode_ARGSPUSH, ptr %17, i32 0, i32 2
  store ptr %16, ptr %18, align 8, !tbaa !460
  %19 = load ptr, ptr %9, align 8, !tbaa !905
  call void @llvm.lifetime.end.p0(i64 8, ptr %9) #25
  ret ptr %19
}

; Function Attrs: inlinehint nounwind sspstrong uwtable
define internal zeroext i1 @nd_type_p(ptr noundef %0, i32 noundef %1) #6 {
  %3 = alloca ptr, align 8
  %4 = alloca i32, align 4
  store ptr %0, ptr %3, align 8, !tbaa !33
  store i32 %1, ptr %4, align 4, !tbaa !14
  %5 = load ptr, ptr %3, align 8, !tbaa !33
  %6 = getelementptr inbounds nuw %struct.RNode, ptr %5, i32 0, i32 0
  %7 = load i64, ptr %6, align 8, !tbaa !175
  %8 = and i64 %7, 32512
  %9 = lshr i64 %8, 8
  %10 = trunc i64 %9 to i32
  %11 = load i32, ptr %4, align 4, !tbaa !14
  %12 = icmp eq i32 %10, %11
  ret i1 %12
}

; Function Attrs: nounwind sspstrong uwtable
define internal ptr @rb_node_list_new(ptr noundef %0, ptr noundef %1, ptr noundef %2) #0 {
  %4 = alloca ptr, align 8
  %5 = alloca ptr, align 8
  %6 = alloca ptr, align 8
  %7 = alloca ptr, align 8
  store ptr %0, ptr %4, align 8, !tbaa !6
  store ptr %1, ptr %5, align 8, !tbaa !33
  store ptr %2, ptr %6, align 8, !tbaa !22
  call void @llvm.lifetime.start.p0(i64 8, ptr %7) #25
  %8 = load ptr, ptr %4, align 8, !tbaa !6
  %9 = load ptr, ptr %6, align 8, !tbaa !22
  %10 = call ptr @node_newnode(ptr noundef %8, i32 noundef 43, i64 noundef 56, i64 noundef 8, ptr noundef %9)
  store ptr %10, ptr %7, align 8, !tbaa !428
  %11 = load ptr, ptr %5, align 8, !tbaa !33
  %12 = load ptr, ptr %7, align 8, !tbaa !428
  %13 = getelementptr inbounds nuw %struct.RNode_LIST, ptr %12, i32 0, i32 1
  store ptr %11, ptr %13, align 8, !tbaa !277
  %14 = load ptr, ptr %7, align 8, !tbaa !428
  %15 = getelementptr inbounds nuw %struct.RNode_LIST, ptr %14, i32 0, i32 2
  store i64 1, ptr %15, align 8, !tbaa !12
  %16 = load ptr, ptr %7, align 8, !tbaa !428
  %17 = getelementptr inbounds nuw %struct.RNode_LIST, ptr %16, i32 0, i32 3
  store ptr null, ptr %17, align 8, !tbaa !279
  %18 = load ptr, ptr %7, align 8, !tbaa !428
  call void @llvm.lifetime.end.p0(i64 8, ptr %7) #25
  ret ptr %18
}

; Function Attrs: nounwind sspstrong uwtable
define internal ptr @arg_append(ptr noundef %0, ptr noundef %1, ptr noundef %2, ptr noundef %3) #0 {
  %5 = alloca ptr, align 8
  %6 = alloca ptr, align 8
  %7 = alloca ptr, align 8
  %8 = alloca ptr, align 8
  %9 = alloca ptr, align 8
  store ptr %0, ptr %6, align 8, !tbaa !6
  store ptr %1, ptr %7, align 8, !tbaa !33
  store ptr %2, ptr %8, align 8, !tbaa !33
  store ptr %3, ptr %9, align 8, !tbaa !22
  %10 = load ptr, ptr %7, align 8, !tbaa !33
  %11 = icmp ne ptr %10, null
  br i1 %11, label %18, label %12

12:                                               ; preds = %4
  %13 = load ptr, ptr %6, align 8, !tbaa !6
  %14 = load ptr, ptr %8, align 8, !tbaa !33
  %15 = load ptr, ptr %8, align 8, !tbaa !33
  %16 = getelementptr inbounds nuw %struct.RNode, ptr %15, i32 0, i32 1
  %17 = call ptr @rb_node_list_new(ptr noundef %13, ptr noundef %14, ptr noundef %16)
  store ptr %17, ptr %5, align 8
  br label %105

18:                                               ; preds = %4
  %19 = load ptr, ptr %7, align 8, !tbaa !33
  %20 = getelementptr inbounds nuw %struct.RNode, ptr %19, i32 0, i32 0
  %21 = load i64, ptr %20, align 8, !tbaa !175
  %22 = and i64 %21, 32512
  %23 = lshr i64 %22, 8
  %24 = trunc i64 %23 to i32
  switch i32 %24, label %99 [
    i32 43, label %25
    i32 79, label %30
    i32 77, label %49
    i32 76, label %75
  ]

25:                                               ; preds = %18
  %26 = load ptr, ptr %6, align 8, !tbaa !6
  %27 = load ptr, ptr %7, align 8, !tbaa !33
  %28 = load ptr, ptr %8, align 8, !tbaa !33
  %29 = call ptr @list_append(ptr noundef %26, ptr noundef %27, ptr noundef %28)
  store ptr %29, ptr %5, align 8
  br label %105

30:                                               ; preds = %18
  %31 = load ptr, ptr %6, align 8, !tbaa !6
  %32 = load ptr, ptr %7, align 8, !tbaa !33
  %33 = getelementptr inbounds nuw %struct.RNode_BLOCK_PASS, ptr %32, i32 0, i32 1
  %34 = load ptr, ptr %33, align 8, !tbaa !458
  %35 = load ptr, ptr %8, align 8, !tbaa !33
  %36 = load ptr, ptr %9, align 8, !tbaa !22
  %37 = call ptr @arg_append(ptr noundef %31, ptr noundef %34, ptr noundef %35, ptr noundef %36)
  %38 = load ptr, ptr %7, align 8, !tbaa !33
  %39 = getelementptr inbounds nuw %struct.RNode_BLOCK_PASS, ptr %38, i32 0, i32 1
  store ptr %37, ptr %39, align 8, !tbaa !458
  %40 = load ptr, ptr %7, align 8, !tbaa !33
  %41 = getelementptr inbounds nuw %struct.RNode, ptr %40, i32 0, i32 1
  %42 = getelementptr inbounds nuw %struct.rb_code_location_struct, ptr %41, i32 0, i32 1
  %43 = load ptr, ptr %7, align 8, !tbaa !33
  %44 = getelementptr inbounds nuw %struct.RNode_BLOCK_PASS, ptr %43, i32 0, i32 1
  %45 = load ptr, ptr %44, align 8, !tbaa !458
  %46 = getelementptr inbounds nuw %struct.RNode, ptr %45, i32 0, i32 1
  %47 = getelementptr inbounds nuw %struct.rb_code_location_struct, ptr %46, i32 0, i32 1
  call void @llvm.memcpy.p0.p0.i64(ptr align 8 %42, ptr align 8 %47, i64 8, i1 false), !tbaa.struct !32
  %48 = load ptr, ptr %7, align 8, !tbaa !33
  store ptr %48, ptr %5, align 8
  br label %105

49:                                               ; preds = %18
  %50 = load ptr, ptr %6, align 8, !tbaa !6
  %51 = load ptr, ptr %6, align 8, !tbaa !6
  %52 = load ptr, ptr %7, align 8, !tbaa !33
  %53 = getelementptr inbounds nuw %struct.RNode_ARGSPUSH, ptr %52, i32 0, i32 2
  %54 = load ptr, ptr %53, align 8, !tbaa !460
  %55 = load ptr, ptr %7, align 8, !tbaa !33
  %56 = getelementptr inbounds nuw %struct.RNode_ARGSPUSH, ptr %55, i32 0, i32 2
  %57 = load ptr, ptr %56, align 8, !tbaa !460
  %58 = getelementptr inbounds nuw %struct.RNode, ptr %57, i32 0, i32 1
  %59 = call ptr @rb_node_list_new(ptr noundef %51, ptr noundef %54, ptr noundef %58)
  %60 = load ptr, ptr %8, align 8, !tbaa !33
  %61 = call ptr @list_append(ptr noundef %50, ptr noundef %59, ptr noundef %60)
  %62 = load ptr, ptr %7, align 8, !tbaa !33
  %63 = getelementptr inbounds nuw %struct.RNode_ARGSPUSH, ptr %62, i32 0, i32 2
  store ptr %61, ptr %63, align 8, !tbaa !460
  %64 = load ptr, ptr %7, align 8, !tbaa !33
  %65 = getelementptr inbounds nuw %struct.RNode, ptr %64, i32 0, i32 1
  %66 = getelementptr inbounds nuw %struct.rb_code_location_struct, ptr %65, i32 0, i32 1
  %67 = load ptr, ptr %7, align 8, !tbaa !33
  %68 = getelementptr inbounds nuw %struct.RNode_ARGSPUSH, ptr %67, i32 0, i32 2
  %69 = load ptr, ptr %68, align 8, !tbaa !460
  %70 = getelementptr inbounds nuw %struct.RNode, ptr %69, i32 0, i32 1
  %71 = getelementptr inbounds nuw %struct.rb_code_location_struct, ptr %70, i32 0, i32 1
  call void @llvm.memcpy.p0.p0.i64(ptr align 8 %66, ptr align 8 %71, i64 8, i1 false), !tbaa.struct !32
  %72 = load ptr, ptr %7, align 8, !tbaa !33
  %73 = call i64 @rb_node_set_type(ptr noundef %72, i32 noundef 76)
  %74 = load ptr, ptr %7, align 8, !tbaa !33
  store ptr %74, ptr %5, align 8
  br label %105

75:                                               ; preds = %18
  %76 = load ptr, ptr %7, align 8, !tbaa !33
  %77 = getelementptr inbounds nuw %struct.RNode_ARGSCAT, ptr %76, i32 0, i32 2
  %78 = load ptr, ptr %77, align 8, !tbaa !462
  %79 = call zeroext i1 @nd_type_p(ptr noundef %78, i32 noundef 43)
  br i1 %79, label %81, label %80

80:                                               ; preds = %75
  br label %99

81:                                               ; preds = %75
  %82 = load ptr, ptr %6, align 8, !tbaa !6
  %83 = load ptr, ptr %7, align 8, !tbaa !33
  %84 = getelementptr inbounds nuw %struct.RNode_ARGSCAT, ptr %83, i32 0, i32 2
  %85 = load ptr, ptr %84, align 8, !tbaa !462
  %86 = load ptr, ptr %8, align 8, !tbaa !33
  %87 = call ptr @list_append(ptr noundef %82, ptr noundef %85, ptr noundef %86)
  %88 = load ptr, ptr %7, align 8, !tbaa !33
  %89 = getelementptr inbounds nuw %struct.RNode_ARGSCAT, ptr %88, i32 0, i32 2
  store ptr %87, ptr %89, align 8, !tbaa !462
  %90 = load ptr, ptr %7, align 8, !tbaa !33
  %91 = getelementptr inbounds nuw %struct.RNode, ptr %90, i32 0, i32 1
  %92 = getelementptr inbounds nuw %struct.rb_code_location_struct, ptr %91, i32 0, i32 1
  %93 = load ptr, ptr %7, align 8, !tbaa !33
  %94 = getelementptr inbounds nuw %struct.RNode_ARGSCAT, ptr %93, i32 0, i32 2
  %95 = load ptr, ptr %94, align 8, !tbaa !462
  %96 = getelementptr inbounds nuw %struct.RNode, ptr %95, i32 0, i32 1
  %97 = getelementptr inbounds nuw %struct.rb_code_location_struct, ptr %96, i32 0, i32 1
  call void @llvm.memcpy.p0.p0.i64(ptr align 8 %92, ptr align 8 %97, i64 8, i1 false), !tbaa.struct !32
  %98 = load ptr, ptr %7, align 8, !tbaa !33
  store ptr %98, ptr %5, align 8
  br label %105

99:                                               ; preds = %18, %80
  %100 = load ptr, ptr %6, align 8, !tbaa !6
  %101 = load ptr, ptr %7, align 8, !tbaa !33
  %102 = load ptr, ptr %8, align 8, !tbaa !33
  %103 = load ptr, ptr %9, align 8, !tbaa !22
  %104 = call ptr @rb_node_argspush_new(ptr noundef %100, ptr noundef %101, ptr noundef %102, ptr noundef %103)
  store ptr %104, ptr %5, align 8
  br label %105

105:                                              ; preds = %99, %81, %49, %30, %25, %12
  %106 = load ptr, ptr %5, align 8
  ret ptr %106
}