; Function Attrs: nounwind sspstrong uwtable
define internal fastcc noundef ptr @arg_append(ptr noundef captures(none) %0, ptr noundef %1, ptr noundef %2, ptr noundef nonnull readonly captures(none) %3) unnamed_addr #0 {
  %.not = icmp eq ptr %1, null
  br i1 %.not, label %5, label %23

5:                                                ; preds = %4
  %6 = getelementptr inbounds nuw i8, ptr %2, i64 8
  %7 = getelementptr i8, ptr %0, i64 288
  %.val.i.i = load ptr, ptr %7, align 8, !tbaa !120
  %8 = tail call ptr @rb_ast_newnode(ptr noundef %.val.i.i, i32 noundef range(i32 0, 115) 43, i64 noundef range(i64 32, 129) 56, i64 noundef 8) #31
  tail call void @rb_node_init(ptr noundef %8, i32 noundef range(i32 0, 115) 43) #31
  %9 = getelementptr inbounds nuw i8, ptr %8, i64 8
  tail call void @llvm.memcpy.p0.p0.i64(ptr noundef nonnull align 8 dereferenceable(16) %9, ptr noundef nonnull readonly align 4 dereferenceable(16) %6, i64 16, i1 false), !tbaa.struct !11
  %10 = load i32, ptr %6, align 4, !tbaa !51
  %11 = sext i32 %10 to i64
  %12 = load i64, ptr %8, align 8, !tbaa !61
  %13 = and i64 %12, 32767
  %14 = shl nsw i64 %11, 15
  %15 = or disjoint i64 %13, %14
  store i64 %15, ptr %8, align 8, !tbaa !61
  %16 = getelementptr inbounds nuw i8, ptr %0, i64 296
  %17 = load i32, ptr %16, align 8, !tbaa !192
  %18 = add nsw i32 %17, 1
  store i32 %18, ptr %16, align 8, !tbaa !192
  %19 = getelementptr inbounds nuw i8, ptr %8, i64 24
  store i32 %17, ptr %19, align 8, !tbaa !193
  %20 = getelementptr inbounds nuw i8, ptr %8, i64 32
  store ptr %2, ptr %20, align 8, !tbaa !170
  %21 = getelementptr inbounds nuw i8, ptr %8, i64 40
  store i64 1, ptr %21, align 8, !tbaa !6
  %22 = getelementptr inbounds nuw i8, ptr %8, i64 48
  store ptr null, ptr %22, align 8, !tbaa !172
  br label %common.ret42

23:                                               ; preds = %4
  %24 = load i64, ptr %1, align 8, !tbaa !61
  %25 = trunc i64 %24 to i32
  %26 = lshr i32 %25, 8
  %27 = and i32 %26, 127
  switch i32 %27, label %102 [
    i32 43, label %28
    i32 79, label %60
    i32 77, label %67
    i32 76, label %92
  ]

28:                                               ; preds = %23
  %29 = getelementptr inbounds nuw i8, ptr %1, i64 48
  %30 = load ptr, ptr %29, align 8, !tbaa !172
  %.not.i = icmp eq ptr %30, null
  br i1 %.not.i, label %list_append.exit, label %31

31:                                               ; preds = %28
  %32 = getelementptr inbounds nuw i8, ptr %30, i64 40
  %33 = load ptr, ptr %32, align 8, !tbaa !6
  br label %list_append.exit

list_append.exit:                                 ; preds = %28, %31
  %.0.i = phi ptr [ %33, %31 ], [ %1, %28 ]
  %34 = getelementptr inbounds nuw i8, ptr %1, i64 40
  %35 = load i64, ptr %34, align 8, !tbaa !6
  %36 = add nsw i64 %35, 1
  store i64 %36, ptr %34, align 8, !tbaa !6
  %37 = getelementptr inbounds nuw i8, ptr %2, i64 8
  %38 = getelementptr i8, ptr %0, i64 288
  %.val.i.i21.i = load ptr, ptr %38, align 8, !tbaa !120
  %39 = tail call ptr @rb_ast_newnode(ptr noundef %.val.i.i21.i, i32 noundef range(i32 0, 115) 43, i64 noundef range(i64 32, 129) 56, i64 noundef 8) #31
  tail call void @rb_node_init(ptr noundef %39, i32 noundef range(i32 0, 115) 43) #31
  %40 = getelementptr inbounds nuw i8, ptr %39, i64 8
  tail call void @llvm.memcpy.p0.p0.i64(ptr noundef nonnull align 8 dereferenceable(16) %40, ptr noundef nonnull readonly align 4 dereferenceable(16) %37, i64 16, i1 false), !tbaa.struct !11
  %41 = load i32, ptr %37, align 4, !tbaa !51
  %42 = sext i32 %41 to i64
  %43 = load i64, ptr %39, align 8, !tbaa !61
  %44 = and i64 %43, 32767
  %45 = shl nsw i64 %42, 15
  %46 = or disjoint i64 %44, %45
  store i64 %46, ptr %39, align 8, !tbaa !61
  %47 = getelementptr inbounds nuw i8, ptr %0, i64 296
  %48 = load i32, ptr %47, align 8, !tbaa !192
  %49 = add nsw i32 %48, 1
  store i32 %49, ptr %47, align 8, !tbaa !192
  %50 = getelementptr inbounds nuw i8, ptr %39, i64 24
  store i32 %48, ptr %50, align 8, !tbaa !193
  %51 = getelementptr inbounds nuw i8, ptr %39, i64 32
  store ptr %2, ptr %51, align 8, !tbaa !170
  %52 = getelementptr inbounds nuw i8, ptr %39, i64 40
  store i64 1, ptr %52, align 8, !tbaa !6
  %53 = getelementptr inbounds nuw i8, ptr %39, i64 48
  store ptr null, ptr %53, align 8, !tbaa !172
  %54 = getelementptr inbounds nuw i8, ptr %.0.i, i64 48
  store ptr %39, ptr %54, align 8, !tbaa !172
  %55 = load ptr, ptr %29, align 8, !tbaa !172
  %56 = getelementptr inbounds nuw i8, ptr %55, i64 40
  store ptr %39, ptr %56, align 8, !tbaa !6
  %57 = getelementptr inbounds nuw i8, ptr %1, i64 16
  %58 = getelementptr inbounds nuw i8, ptr %2, i64 16
  %59 = load i64, ptr %58, align 8
  store i64 %59, ptr %57, align 8
  br label %common.ret42

common.ret42:                                     ; preds = %102, %97, %67, %list_append.exit, %5, %60
  %common.ret42.op = phi ptr [ %1, %60 ], [ %104, %102 ], [ %1, %97 ], [ %1, %67 ], [ %1, %list_append.exit ], [ %8, %5 ]
  ret ptr %common.ret42.op

60:                                               ; preds = %23
  %61 = getelementptr inbounds nuw i8, ptr %1, i64 32
  %62 = load ptr, ptr %61, align 8, !tbaa !108
  %63 = tail call fastcc ptr @arg_append(ptr noundef %0, ptr noundef %62, ptr noundef %2, ptr noundef %3)
  store ptr %63, ptr %61, align 8, !tbaa !108
  %64 = getelementptr inbounds nuw i8, ptr %1, i64 16
  %65 = getelementptr inbounds nuw i8, ptr %63, i64 16
  %66 = load i64, ptr %65, align 8
  store i64 %66, ptr %64, align 8
  br label %common.ret42

67:                                               ; preds = %23
  %68 = getelementptr inbounds nuw i8, ptr %1, i64 40
  %69 = load ptr, ptr %68, align 8, !tbaa !354
  %70 = getelementptr inbounds nuw i8, ptr %69, i64 8
  %71 = getelementptr i8, ptr %0, i64 288
  %.val.i.i40 = load ptr, ptr %71, align 8, !tbaa !120
  %72 = tail call ptr @rb_ast_newnode(ptr noundef %.val.i.i40, i32 noundef range(i32 0, 115) 43, i64 noundef range(i64 32, 129) 56, i64 noundef 8) #31
  tail call void @rb_node_init(ptr noundef %72, i32 noundef range(i32 0, 115) 43) #31
  %73 = getelementptr inbounds nuw i8, ptr %72, i64 8
  tail call void @llvm.memcpy.p0.p0.i64(ptr noundef nonnull align 8 dereferenceable(16) %73, ptr noundef nonnull readonly align 4 dereferenceable(16) %70, i64 16, i1 false), !tbaa.struct !11
  %74 = load i32, ptr %70, align 4, !tbaa !51
  %75 = sext i32 %74 to i64
  %76 = load i64, ptr %72, align 8, !tbaa !61
  %77 = and i64 %76, 32767
  %78 = shl nsw i64 %75, 15
  %79 = or disjoint i64 %77, %78
  store i64 %79, ptr %72, align 8, !tbaa !61
  %80 = getelementptr inbounds nuw i8, ptr %0, i64 296
  %81 = load i32, ptr %80, align 8, !tbaa !192
  %82 = add nsw i32 %81, 1
  store i32 %82, ptr %80, align 8, !tbaa !192
  %83 = getelementptr inbounds nuw i8, ptr %72, i64 24
  store i32 %81, ptr %83, align 8, !tbaa !193
  %84 = getelementptr inbounds nuw i8, ptr %72, i64 32
  store ptr %69, ptr %84, align 8, !tbaa !170
  %85 = getelementptr inbounds nuw i8, ptr %72, i64 40
  store i64 1, ptr %85, align 8, !tbaa !6
  %86 = getelementptr inbounds nuw i8, ptr %72, i64 48
  store ptr null, ptr %86, align 8, !tbaa !172
  %87 = tail call fastcc ptr @list_append(ptr noundef %0, ptr noundef nonnull %72, ptr noundef %2)
  store ptr %87, ptr %68, align 8, !tbaa !354
  %88 = getelementptr inbounds nuw i8, ptr %1, i64 16
  %89 = getelementptr inbounds nuw i8, ptr %87, i64 16
  %90 = load i64, ptr %89, align 8
  store i64 %90, ptr %88, align 8
  %91 = tail call i64 @rb_node_set_type(ptr noundef nonnull %1, i32 noundef 76) #31
  br label %common.ret42

92:                                               ; preds = %23
  %93 = getelementptr inbounds nuw i8, ptr %1, i64 40
  %94 = load ptr, ptr %93, align 8, !tbaa !356
  %.val = load i64, ptr %94, align 8, !tbaa !61
  %95 = and i64 %.val, 32512
  %96 = icmp eq i64 %95, 11008
  br i1 %96, label %97, label %102

97:                                               ; preds = %92
  %98 = tail call fastcc ptr @list_append(ptr noundef %0, ptr noundef nonnull %94, ptr noundef %2)
  store ptr %98, ptr %93, align 8, !tbaa !356
  %99 = getelementptr inbounds nuw i8, ptr %1, i64 16
  %100 = getelementptr inbounds nuw i8, ptr %98, i64 16
  %101 = load i64, ptr %100, align 8
  store i64 %101, ptr %99, align 8
  br label %common.ret42

102:                                              ; preds = %92, %23
  %103 = getelementptr i8, ptr %0, i64 288
  %.val.i.i41 = load ptr, ptr %103, align 8, !tbaa !120
  %104 = tail call ptr @rb_ast_newnode(ptr noundef %.val.i.i41, i32 noundef range(i32 0, 115) 77, i64 noundef range(i64 32, 129) 48, i64 noundef 8) #31
  tail call void @rb_node_init(ptr noundef %104, i32 noundef range(i32 0, 115) 77) #31
  %105 = getelementptr inbounds nuw i8, ptr %104, i64 8
  tail call void @llvm.memcpy.p0.p0.i64(ptr noundef nonnull align 8 dereferenceable(16) %105, ptr noundef nonnull readonly align 4 dereferenceable(16) %3, i64 16, i1 false), !tbaa.struct !11
  %106 = load i32, ptr %3, align 4, !tbaa !51
  %107 = sext i32 %106 to i64
  %108 = load i64, ptr %104, align 8, !tbaa !61
  %109 = and i64 %108, 32767
  %110 = shl nsw i64 %107, 15
  %111 = or disjoint i64 %109, %110
  store i64 %111, ptr %104, align 8, !tbaa !61
  %112 = getelementptr inbounds nuw i8, ptr %0, i64 296
  %113 = load i32, ptr %112, align 8, !tbaa !192
  %114 = add nsw i32 %113, 1
  store i32 %114, ptr %112, align 8, !tbaa !192
  %115 = getelementptr inbounds nuw i8, ptr %104, i64 24
  store i32 %113, ptr %115, align 8, !tbaa !193
  %116 = getelementptr inbounds nuw i8, ptr %104, i64 32
  store ptr %1, ptr %116, align 8, !tbaa !358
  %117 = getelementptr inbounds nuw i8, ptr %104, i64 40
  store ptr %2, ptr %117, align 8, !tbaa !354
  br label %common.ret42
}